; Function Attrs: mustprogress nounwind uwtable
define hidden void @_ZN8GraphKit18store_String_valueEP4NodeS1_(ptr noundef nonnull align 8 dereferenceable(84) %0, ptr noundef %1, ptr noundef %2) local_unnamed_addr #0 align 2 {
  %4 = alloca ptr, align 8
  %5 = load i32, ptr @_ZN16java_lang_String13_value_offsetE, align 4
  %6 = load ptr, ptr @_ZN5ciEnv13_String_klassE, align 8
  call void @llvm.lifetime.start.p0(i64 8, ptr nonnull %4)
  store ptr %6, ptr %4, align 8
  %7 = call noundef ptr @_ZN7TypePtr10interfacesERP7ciKlassbbbN4Type17InterfaceHandlingE(ptr noundef nonnull align 8 dereferenceable(8) %4, i1 noundef zeroext true, i1 noundef zeroext false, i1 noundef zeroext false, i32 noundef 1) #13
  %8 = load ptr, ptr %4, align 8
  %9 = call noundef ptr @_ZN11TypeInstPtr4makeEN7TypePtr3PTREP7ciKlassPK14TypeInterfacesbP8ciObjectiiPKS0_i(i32 noundef 4, ptr noundef %8, ptr noundef %7, i1 noundef zeroext false, ptr noundef null, i32 noundef 0, i32 noundef 0, ptr noundef null, i32 noundef 2147483647) #13
  call void @llvm.lifetime.end.p0(i64 8, ptr nonnull %4)
  %10 = sext i32 %5 to i64
  %11 = load ptr, ptr %9, align 8
  %12 = getelementptr inbounds i8, ptr %11, i64 192
  %13 = load ptr, ptr %12, align 8
  %14 = call noundef ptr %13(ptr noundef nonnull align 8 dereferenceable(80) %9, i64 noundef %10) #13
  %15 = call noundef ptr @_ZN8GraphKit14basic_plus_adrEP4Nodel(ptr noundef nonnull align 8 dereferenceable(84) %0, ptr noundef %1, i64 noundef %10)
  %16 = load ptr, ptr @_ZN10TypeAryPtr5BYTESE, align 8
  %17 = call noundef ptr @_ZN8GraphKit15access_store_atEP4NodeS1_PK7TypePtrS1_PK4Type9BasicTypem(ptr noundef nonnull align 8 dereferenceable(84) %0, ptr noundef %1, ptr noundef %15, ptr noundef %14, ptr noundef %2, ptr noundef %16, i8 noundef zeroext 12, i64 noundef 262208)
  ret void
}